; Function Attrs: mustprogress uwtable
define hidden void @_ZNK4cvc58internal9BitVector10zeroExtendEj(ptr dead_on_unwind noalias writable sret(%"class.cvc5::internal::BitVector") align 8 initializes((0, 4)) %0, ptr noundef nonnull align 8 dereferenceable(24) %1, i32 noundef %2) local_unnamed_addr #3 align 2 {
  %4 = load i32, ptr %1, align 8, !tbaa !11
  %5 = add i32 %4, %2
  %6 = getelementptr inbounds nuw i8, ptr %1, i64 8
  store i32 %5, ptr %0, align 8, !tbaa !11
  %7 = getelementptr inbounds nuw i8, ptr %0, i64 8
  tail call void @_ZNK4cvc58internal7Integer9modByPow2Ej(ptr dead_on_unwind nonnull writable sret(%"class.cvc5::internal::Integer") align 8 %7, ptr noundef nonnull align 8 dereferenceable(16) %6, i32 noundef %5)
  ret void
}